target datalayout = "e-m:e-p270:32:32-p271:32:32-p272:64:64-i64:64-i128:128-f80:128-n8:16:32:64-S128"
target triple = "x86_64-pc-linux-gnu"

%struct.strbuf = type { i64, i64, ptr }
%struct.trace_key = type { ptr, i32, i8 }

@.str = private unnamed_addr constant [7 x i8] c"http.c\00", align 1
@strbuf_slopbuf = external global [0 x i8], align 1
@trace_curl = internal global { ptr, i32, i8, [3 x i8] } { ptr @.str.57, i32 0, i8 0, [3 x i8] zeroinitializer }, align 8
@.str.76 = private unnamed_addr constant [11 x i8] c"./strbuf.h\00", align 1
@.str.77 = private unnamed_addr constant [30 x i8] c"strbuf_setlen() beyond buffer\00", align 1
@__const.curl_dump_header.out = private unnamed_addr constant %struct.strbuf { i64 0, i64 0, ptr @strbuf_slopbuf }, align 8
@.str.78 = private unnamed_addr constant [31 x i8] c"%s, %10.10ld bytes (0x%8.8lx)\0A\00", align 1
@.str.79 = private unnamed_addr constant [3 x i8] c": \00", align 1

; Function Attrs: inlinehint nounwind uwtable
define internal i64 @strbuf_avail(ptr noundef %0) #5 {
  %2 = alloca ptr, align 8
  store ptr %0, ptr %2, align 8, !tbaa !21
  %3 = load ptr, ptr %2, align 8, !tbaa !21
  %4 = getelementptr inbounds nuw %struct.strbuf, ptr %3, i32 0, i32 0
  %5 = load i64, ptr %4, align 8, !tbaa !249
  %6 = icmp ne i64 %5, 0
  br i1 %6, label %7, label %16

7:                                                ; preds = %1
  %8 = load ptr, ptr %2, align 8, !tbaa !21
  %9 = getelementptr inbounds nuw %struct.strbuf, ptr %8, i32 0, i32 0
  %10 = load i64, ptr %9, align 8, !tbaa !249
  %11 = load ptr, ptr %2, align 8, !tbaa !21
  %12 = getelementptr inbounds nuw %struct.strbuf, ptr %11, i32 0, i32 1
  %13 = load i64, ptr %12, align 8, !tbaa !142
  %14 = sub i64 %10, %13
  %15 = sub i64 %14, 1
  br label %17

16:                                               ; preds = %1
  br label %17

17:                                               ; preds = %16, %7
  %18 = phi i64 [ %15, %7 ], [ 0, %16 ]
  ret i64 %18
}

; Function Attrs: inlinehint nounwind uwtable
define internal void @strbuf_addch(ptr noundef %0, i32 noundef %1) #5 {
  %3 = alloca ptr, align 8
  %4 = alloca i32, align 4
  store ptr %0, ptr %3, align 8, !tbaa !21
  store i32 %1, ptr %4, align 4, !tbaa !19
  %5 = load ptr, ptr %3, align 8, !tbaa !21
  %6 = call i64 @strbuf_avail(ptr noundef %5)
  %7 = icmp ne i64 %6, 0
  br i1 %7, label %10, label %8

8:                                                ; preds = %2
  %9 = load ptr, ptr %3, align 8, !tbaa !21
  call void @strbuf_grow(ptr noundef %9, i64 noundef 1)
  br label %10

10:                                               ; preds = %8, %2
  %11 = load i32, ptr %4, align 4, !tbaa !19
  %12 = trunc i32 %11 to i8
  %13 = load ptr, ptr %3, align 8, !tbaa !21
  %14 = getelementptr inbounds nuw %struct.strbuf, ptr %13, i32 0, i32 2
  %15 = load ptr, ptr %14, align 8, !tbaa !35
  %16 = load ptr, ptr %3, align 8, !tbaa !21
  %17 = getelementptr inbounds nuw %struct.strbuf, ptr %16, i32 0, i32 1
  %18 = load i64, ptr %17, align 8, !tbaa !142
  %19 = add i64 %18, 1
  store i64 %19, ptr %17, align 8, !tbaa !142
  %20 = getelementptr inbounds nuw i8, ptr %15, i64 %18
  store i8 %12, ptr %20, align 1, !tbaa !65
  %21 = load ptr, ptr %3, align 8, !tbaa !21
  %22 = getelementptr inbounds nuw %struct.strbuf, ptr %21, i32 0, i32 2
  %23 = load ptr, ptr %22, align 8, !tbaa !35
  %24 = load ptr, ptr %3, align 8, !tbaa !21
  %25 = getelementptr inbounds nuw %struct.strbuf, ptr %24, i32 0, i32 1
  %26 = load i64, ptr %25, align 8, !tbaa !142
  %27 = getelementptr inbounds nuw i8, ptr %23, i64 %26
  store i8 0, ptr %27, align 1, !tbaa !65
  ret void
}

; Function Attrs: inlinehint nounwind uwtable
define internal void @strbuf_insertstr(ptr noundef %0, i64 noundef %1, ptr noundef %2) #5 {
  %4 = alloca ptr, align 8
  %5 = alloca i64, align 8
  %6 = alloca ptr, align 8
  store ptr %0, ptr %4, align 8, !tbaa !21
  store i64 %1, ptr %5, align 8, !tbaa !9
  store ptr %2, ptr %6, align 8, !tbaa !4
  %7 = load ptr, ptr %4, align 8, !tbaa !21
  %8 = load i64, ptr %5, align 8, !tbaa !9
  %9 = load ptr, ptr %6, align 8, !tbaa !4
  %10 = load ptr, ptr %6, align 8, !tbaa !4
  %11 = call i64 @strlen(ptr noundef %10) #13
  call void @strbuf_insert(ptr noundef %7, i64 noundef %8, ptr noundef %9, i64 noundef %11)
  ret void
}

; Function Attrs: inlinehint nounwind uwtable
define internal ptr @strbuf_split_max(ptr noundef %0, i32 noundef %1, i32 noundef %2) #5 {
  %4 = alloca ptr, align 8
  %5 = alloca i32, align 4
  %6 = alloca i32, align 4
  store ptr %0, ptr %4, align 8, !tbaa !21
  store i32 %1, ptr %5, align 4, !tbaa !19
  store i32 %2, ptr %6, align 4, !tbaa !19
  %7 = load ptr, ptr %4, align 8, !tbaa !21
  %8 = getelementptr inbounds nuw %struct.strbuf, ptr %7, i32 0, i32 2
  %9 = load ptr, ptr %8, align 8, !tbaa !35
  %10 = load ptr, ptr %4, align 8, !tbaa !21
  %11 = getelementptr inbounds nuw %struct.strbuf, ptr %10, i32 0, i32 1
  %12 = load i64, ptr %11, align 8, !tbaa !142
  %13 = load i32, ptr %5, align 4, !tbaa !19
  %14 = load i32, ptr %6, align 4, !tbaa !19
  %15 = call ptr @strbuf_split_buf(ptr noundef %9, i64 noundef %12, i32 noundef %13, i32 noundef %14)
  ret ptr %15
}

; Function Attrs: inlinehint nounwind uwtable
define internal void @strbuf_setlen(ptr noundef %0, i64 noundef %1) #5 {
  %3 = alloca ptr, align 8
  %4 = alloca i64, align 8
  store ptr %0, ptr %3, align 8, !tbaa !21
  store i64 %1, ptr %4, align 8, !tbaa !9
  %5 = load i64, ptr %4, align 8, !tbaa !9
  %6 = load ptr, ptr %3, align 8, !tbaa !21
  %7 = getelementptr inbounds nuw %struct.strbuf, ptr %6, i32 0, i32 0
  %8 = load i64, ptr %7, align 8, !tbaa !249
  %9 = icmp ne i64 %8, 0
  br i1 %9, label %10, label %15

10:                                               ; preds = %2
  %11 = load ptr, ptr %3, align 8, !tbaa !21
  %12 = getelementptr inbounds nuw %struct.strbuf, ptr %11, i32 0, i32 0
  %13 = load i64, ptr %12, align 8, !tbaa !249
  %14 = sub i64 %13, 1
  br label %16

15:                                               ; preds = %2
  br label %16

16:                                               ; preds = %15, %10
  %17 = phi i64 [ %14, %10 ], [ 0, %15 ]
  %18 = icmp ugt i64 %5, %17
  br i1 %18, label %19, label %20

19:                                               ; preds = %16
  call void (ptr, i32, ptr, ...) @BUG_fl(ptr noundef @.str.76, i32 noundef 167, ptr noundef @.str.77) #12
  unreachable

20:                                               ; preds = %16
  %21 = load i64, ptr %4, align 8, !tbaa !9
  %22 = load ptr, ptr %3, align 8, !tbaa !21
  %23 = getelementptr inbounds nuw %struct.strbuf, ptr %22, i32 0, i32 1
  store i64 %21, ptr %23, align 8, !tbaa !142
  %24 = load ptr, ptr %3, align 8, !tbaa !21
  %25 = getelementptr inbounds nuw %struct.strbuf, ptr %24, i32 0, i32 2
  %26 = load ptr, ptr %25, align 8, !tbaa !35
  %27 = icmp ne ptr %26, @strbuf_slopbuf
  br i1 %27, label %28, label %34

28:                                               ; preds = %20
  %29 = load ptr, ptr %3, align 8, !tbaa !21
  %30 = getelementptr inbounds nuw %struct.strbuf, ptr %29, i32 0, i32 2
  %31 = load ptr, ptr %30, align 8, !tbaa !35
  %32 = load i64, ptr %4, align 8, !tbaa !9
  %33 = getelementptr inbounds nuw i8, ptr %31, i64 %32
  store i8 0, ptr %33, align 1, !tbaa !65
  br label %35

34:                                               ; preds = %20
  br label %35

35:                                               ; preds = %34, %28
  ret void
}

; Function Attrs: inlinehint nounwind uwtable
define internal i32 @trace_pass_fl(ptr noundef %0) #5 {
  %2 = alloca ptr, align 8
  store ptr %0, ptr %2, align 8, !tbaa !239
  %3 = load ptr, ptr %2, align 8, !tbaa !239
  %4 = getelementptr inbounds nuw %struct.trace_key, ptr %3, i32 0, i32 1
  %5 = load i32, ptr %4, align 8, !tbaa !241
  %6 = icmp ne i32 %5, 0
  br i1 %6, label %15, label %7

7:                                                ; preds = %1
  %8 = load ptr, ptr %2, align 8, !tbaa !239
  %9 = getelementptr inbounds nuw %struct.trace_key, ptr %8, i32 0, i32 2
  %10 = load i8, ptr %9, align 4
  %11 = and i8 %10, 1
  %12 = zext i8 %11 to i32
  %13 = icmp ne i32 %12, 0
  %14 = xor i1 %13, true
  br label %15

15:                                               ; preds = %7, %1
  %16 = phi i1 [ true, %1 ], [ %14, %7 ]
  %17 = zext i1 %16 to i32
  ret i32 %17
}

; Function Attrs: nounwind uwtable
define internal void @curl_dump_header(ptr noundef %0, ptr noundef %1, i64 noundef %2, i32 noundef %3) #0 {
  %5 = alloca ptr, align 8
  %6 = alloca ptr, align 8
  %7 = alloca i64, align 8
  %8 = alloca i32, align 4
  %9 = alloca %struct.strbuf, align 8
  %10 = alloca ptr, align 8
  %11 = alloca ptr, align 8
  store ptr %0, ptr %5, align 8, !tbaa !4
  store ptr %1, ptr %6, align 8, !tbaa !4
  store i64 %2, ptr %7, align 8, !tbaa !9
  store i32 %3, ptr %8, align 4, !tbaa !19
  call void @llvm.lifetime.start.p0(i64 24, ptr %9) #11
  call void @llvm.memcpy.p0.p0.i64(ptr align 8 %9, ptr align 8 @__const.curl_dump_header.out, i64 24, i1 false)
  call void @llvm.lifetime.start.p0(i64 8, ptr %10) #11
  call void @llvm.lifetime.start.p0(i64 8, ptr %11) #11
  %12 = load ptr, ptr %5, align 8, !tbaa !4
  %13 = load i64, ptr %7, align 8, !tbaa !9
  %14 = load i64, ptr %7, align 8, !tbaa !9
  call void (ptr, ptr, ...) @strbuf_addf(ptr noundef %9, ptr noundef @.str.78, ptr noundef %12, i64 noundef %13, i64 noundef %14)
  br label %15

15:                                               ; preds = %4
  %16 = call i32 @trace_pass_fl(ptr noundef @trace_curl)
  %17 = icmp ne i32 %16, 0
  br i1 %17, label %18, label %19

18:                                               ; preds = %15
  call void @trace_strbuf_fl(ptr noundef @.str, i32 noundef 825, ptr noundef @trace_curl, ptr noundef %9)
  br label %19

19:                                               ; preds = %18, %15
  br label %20

20:                                               ; preds = %19
  br label %21

21:                                               ; preds = %20
  call void @strbuf_setlen(ptr noundef %9, i64 noundef 0)
  %22 = load ptr, ptr %6, align 8, !tbaa !4
  %23 = load i64, ptr %7, align 8, !tbaa !9
  call void @strbuf_add(ptr noundef %9, ptr noundef %22, i64 noundef %23)
  %24 = call ptr @strbuf_split_max(ptr noundef %9, i32 noundef 10, i32 noundef 0)
  store ptr %24, ptr %10, align 8, !tbaa !234
  %25 = load ptr, ptr %10, align 8, !tbaa !234
  store ptr %25, ptr %11, align 8, !tbaa !234
  br label %26

26:                                               ; preds = %58, %21
  %27 = load ptr, ptr %11, align 8, !tbaa !234
  %28 = load ptr, ptr %27, align 8, !tbaa !21
  %29 = icmp ne ptr %28, null
  br i1 %29, label %30, label %61

30:                                               ; preds = %26
  %31 = load i32, ptr %8, align 4, !tbaa !19
  %32 = icmp ne i32 %31, 0
  br i1 %32, label %33, label %37

33:                                               ; preds = %30
  %34 = load ptr, ptr %11, align 8, !tbaa !234
  %35 = load ptr, ptr %34, align 8, !tbaa !21
  %36 = call i32 @redact_sensitive_header(ptr noundef %35, i64 noundef 0)
  br label %37

37:                                               ; preds = %33, %30
  %38 = load ptr, ptr %11, align 8, !tbaa !234
  %39 = load ptr, ptr %38, align 8, !tbaa !21
  %40 = load ptr, ptr %5, align 8, !tbaa !4
  call void @strbuf_insertstr(ptr noundef %39, i64 noundef 0, ptr noundef %40)
  %41 = load ptr, ptr %11, align 8, !tbaa !234
  %42 = load ptr, ptr %41, align 8, !tbaa !21
  %43 = load ptr, ptr %5, align 8, !tbaa !4
  %44 = call i64 @strlen(ptr noundef %43) #13
  call void @strbuf_insertstr(ptr noundef %42, i64 noundef %44, ptr noundef @.str.79)
  %45 = load ptr, ptr %11, align 8, !tbaa !234
  %46 = load ptr, ptr %45, align 8, !tbaa !21
  call void @strbuf_rtrim(ptr noundef %46)
  %47 = load ptr, ptr %11, align 8, !tbaa !234
  %48 = load ptr, ptr %47, align 8, !tbaa !21
  call void @strbuf_addch(ptr noundef %48, i32 noundef 10)
  br label %49

49:                                               ; preds = %37
  %50 = call i32 @trace_pass_fl(ptr noundef @trace_curl)
  %51 = icmp ne i32 %50, 0
  br i1 %51, label %52, label %55

52:                                               ; preds = %49
  %53 = load ptr, ptr %11, align 8, !tbaa !234
  %54 = load ptr, ptr %53, align 8, !tbaa !21
  call void @trace_strbuf_fl(ptr noundef @.str, i32 noundef 837, ptr noundef @trace_curl, ptr noundef %54)
  br label %55

55:                                               ; preds = %52, %49
  br label %56

56:                                               ; preds = %55
  br label %57

57:                                               ; preds = %56
  br label %58

58:                                               ; preds = %57
  %59 = load ptr, ptr %11, align 8, !tbaa !234
  %60 = getelementptr inbounds nuw ptr, ptr %59, i32 1
  store ptr %60, ptr %11, align 8, !tbaa !234
  br label %26, !llvm.loop !236

61:                                               ; preds = %26
  %62 = load ptr, ptr %10, align 8, !tbaa !234
  call void @strbuf_list_free(ptr noundef %62)
  call void @strbuf_release(ptr noundef %9)
  call void @llvm.lifetime.end.p0(i64 8, ptr %11) #11
  call void @llvm.lifetime.end.p0(i64 8, ptr %10) #11
  call void @llvm.lifetime.end.p0(i64 24, ptr %9) #11
  ret void
}