; Function Attrs: nounwind uwtable
define internal fastcc void @curl_dump_header(ptr noundef %0, ptr noundef %1, i64 noundef %2, i32 noundef range(i32 0, 2) %3) unnamed_addr #3 {
  %5 = alloca %struct.strbuf, align 8
  call void @llvm.lifetime.start.p0(i64 24, ptr nonnull %5) #22
  call void @llvm.memcpy.p0.p0.i64(ptr noundef nonnull align 8 dereferenceable(24) %5, ptr noundef nonnull align 8 dereferenceable(24) @__const.fetch_pack_index.buf, i64 24, i1 false)
  call void (ptr, ptr, ...) @strbuf_addf(ptr noundef nonnull %5, ptr noundef nonnull @.str.78, ptr noundef %0, i64 noundef %2, i64 noundef %2) #22
  %6 = load i32, ptr getelementptr inbounds nuw (i8, ptr @trace_curl, i64 8), align 8, !tbaa !31
  %.not.i = icmp eq i32 %6, 0
  %7 = load i8, ptr getelementptr inbounds nuw (i8, ptr @trace_curl, i64 12), align 4
  %8 = and i8 %7, 1
  %.not24 = icmp ne i8 %8, 0
  %.not = select i1 %.not.i, i1 %.not24, i1 false
  br i1 %.not, label %10, label %9

9:                                                ; preds = %4
  call void @trace_strbuf_fl(ptr noundef nonnull @.str, i32 noundef 825, ptr noundef nonnull @trace_curl, ptr noundef nonnull %5) #22
  br label %10

10:                                               ; preds = %9, %4
  %11 = getelementptr inbounds nuw i8, ptr %5, i64 8
  store i64 0, ptr %11, align 8, !tbaa !30
  %12 = getelementptr inbounds nuw i8, ptr %5, i64 16
  %13 = load ptr, ptr %12, align 8, !tbaa !23
  %.not9.i = icmp eq ptr %13, @strbuf_slopbuf
  br i1 %.not9.i, label %strbuf_setlen.exit, label %14

14:                                               ; preds = %10
  store i8 0, ptr %13, align 1, !tbaa !24
  br label %strbuf_setlen.exit

strbuf_setlen.exit:                               ; preds = %10, %14
  call void @strbuf_add(ptr noundef nonnull %5, ptr noundef %1, i64 noundef %2) #22
  %.val = load i64, ptr %11, align 8, !tbaa !30
  %.val21 = load ptr, ptr %12, align 8, !tbaa !23
  %15 = call ptr @strbuf_split_buf(ptr noundef %.val21, i64 noundef %.val, i32 noundef 10, i32 noundef 0) #22
  %16 = load ptr, ptr %15, align 8, !tbaa !203
  %.not1826 = icmp eq ptr %16, null
  br i1 %.not1826, label %._crit_edge, label %.lr.ph

.lr.ph:                                           ; preds = %strbuf_setlen.exit
  %.not19 = icmp eq i32 %3, 0
  br label %17

17:                                               ; preds = %.lr.ph, %44
  %18 = phi ptr [ %16, %.lr.ph ], [ %46, %44 ]
  %.027 = phi ptr [ %15, %.lr.ph ], [ %45, %44 ]
  br i1 %.not19, label %21, label %19

19:                                               ; preds = %17
  %20 = call fastcc i32 @redact_sensitive_header(ptr noundef %18, i64 noundef 0)
  %.pre = load ptr, ptr %.027, align 8, !tbaa !203
  br label %21

21:                                               ; preds = %19, %17
  %22 = phi ptr [ %.pre, %19 ], [ %18, %17 ]
  %23 = call i64 @strlen(ptr noundef nonnull dereferenceable(1) %0) #23
  call void @strbuf_insert(ptr noundef %22, i64 noundef 0, ptr noundef nonnull %0, i64 noundef %23) #22
  %24 = load ptr, ptr %.027, align 8, !tbaa !203
  %25 = call i64 @strlen(ptr noundef nonnull dereferenceable(1) %0) #23
  call void @strbuf_insert(ptr noundef %24, i64 noundef %25, ptr noundef nonnull @.str.79, i64 noundef 2) #22
  %26 = load ptr, ptr %.027, align 8, !tbaa !203
  call void @strbuf_rtrim(ptr noundef %26) #22
  %27 = load ptr, ptr %.027, align 8, !tbaa !203
  %28 = load i64, ptr %27, align 8, !tbaa !29
  %.not.i.i = icmp eq i64 %28, 0
  br i1 %.not.i.i, label %strbuf_avail.exit.thread.i, label %strbuf_avail.exit.i

strbuf_avail.exit.i:                              ; preds = %21
  %29 = getelementptr inbounds nuw i8, ptr %27, i64 8
  %30 = load i64, ptr %29, align 8, !tbaa !30
  %.neg.i = add i64 %30, 1
  %.not.i22 = icmp eq i64 %28, %.neg.i
  br i1 %.not.i22, label %strbuf_avail.exit.thread.i, label %strbuf_addch.exit

strbuf_avail.exit.thread.i:                       ; preds = %strbuf_avail.exit.i, %21
  call void @strbuf_grow(ptr noundef nonnull %27, i64 noundef 1) #22
  %.phi.trans.insert.i = getelementptr inbounds nuw i8, ptr %27, i64 8
  %.pre.i = load i64, ptr %.phi.trans.insert.i, align 8, !tbaa !30
  %.pre7.i = add i64 %.pre.i, 1
  br label %strbuf_addch.exit

strbuf_addch.exit:                                ; preds = %strbuf_avail.exit.i, %strbuf_avail.exit.thread.i
  %.pre-phi.i = phi i64 [ %.pre7.i, %strbuf_avail.exit.thread.i ], [ %.neg.i, %strbuf_avail.exit.i ]
  %31 = phi i64 [ %.pre.i, %strbuf_avail.exit.thread.i ], [ %30, %strbuf_avail.exit.i ]
  %32 = getelementptr inbounds nuw i8, ptr %27, i64 16
  %33 = load ptr, ptr %32, align 8, !tbaa !23
  %34 = getelementptr inbounds nuw i8, ptr %27, i64 8
  store i64 %.pre-phi.i, ptr %34, align 8, !tbaa !30
  %35 = getelementptr inbounds nuw i8, ptr %33, i64 %31
  store i8 10, ptr %35, align 1, !tbaa !24
  %36 = load ptr, ptr %32, align 8, !tbaa !23
  %37 = load i64, ptr %34, align 8, !tbaa !30
  %38 = getelementptr inbounds nuw i8, ptr %36, i64 %37
  store i8 0, ptr %38, align 1, !tbaa !24
  %39 = load i32, ptr getelementptr inbounds nuw (i8, ptr @trace_curl, i64 8), align 8, !tbaa !31
  %.not.i23 = icmp eq i32 %39, 0
  %40 = load i8, ptr getelementptr inbounds nuw (i8, ptr @trace_curl, i64 12), align 4
  %41 = and i8 %40, 1
  %.not2025 = icmp ne i8 %41, 0
  %.not20 = select i1 %.not.i23, i1 %.not2025, i1 false
  br i1 %.not20, label %44, label %42

42:                                               ; preds = %strbuf_addch.exit
  %43 = load ptr, ptr %.027, align 8, !tbaa !203
  call void @trace_strbuf_fl(ptr noundef nonnull @.str, i32 noundef 837, ptr noundef nonnull @trace_curl, ptr noundef %43) #22
  br label %44

44:                                               ; preds = %strbuf_addch.exit, %42
  %45 = getelementptr inbounds nuw i8, ptr %.027, i64 8
  %46 = load ptr, ptr %45, align 8, !tbaa !203
  %.not18 = icmp eq ptr %46, null
  br i1 %.not18, label %._crit_edge, label %17, !llvm.loop !204

._crit_edge:                                      ; preds = %44, %strbuf_setlen.exit
  call void @strbuf_list_free(ptr noundef nonnull %15) #22
  call void @strbuf_release(ptr noundef nonnull %5) #22
  call void @llvm.lifetime.end.p0(i64 24, ptr nonnull %5) #22
  ret void
}